; Function Attrs: nofree norecurse nosync nounwind memory(read, inaccessiblemem: none) uwtable
define ptr @ist_iter(ptr noundef readonly captures(address_is_null) %0) local_unnamed_addr #7 {
  %.not = icmp eq ptr %0, null
  br i1 %.not, label %.thread, label %2

2:                                                ; preds = %1
  %3 = getelementptr inbounds nuw i8, ptr %0, i64 8
  %4 = load ptr, ptr %3, align 8, !tbaa !52
  %5 = getelementptr inbounds nuw i8, ptr %4, i64 8
  %6 = load i32, ptr %5, align 8, !tbaa !59
  %7 = getelementptr inbounds nuw i8, ptr %0, i64 16
  %8 = load i32, ptr %7, align 8, !tbaa !63
  %9 = add nsw i32 %8, 1
  br label %.thread

.thread:                                          ; preds = %1, %2
  %10 = phi i32 [ %6, %2 ], [ 0, %1 ]
  %11 = phi i32 [ %9, %2 ], [ 0, %1 ]
  %12 = load i32, ptr @nb_input_files, align 4, !tbaa !12
  %13 = icmp slt i32 %10, %12
  br i1 %13, label %.lr.ph, label %.loopexit

.lr.ph:                                           ; preds = %.thread
  %14 = load ptr, ptr @input_files, align 8, !tbaa !64
  %15 = sext i32 %10 to i64
  br label %17

16:                                               ; preds = %17
  %indvars.iv.next = add nsw i64 %indvars.iv, 1
  %lftr.wideiv = trunc i64 %indvars.iv.next to i32
  %exitcond.not = icmp eq i32 %12, %lftr.wideiv
  br i1 %exitcond.not, label %.loopexit, label %17, !llvm.loop !66

17:                                               ; preds = %.lr.ph, %16
  %indvars.iv = phi i64 [ %15, %.lr.ph ], [ %indvars.iv.next, %16 ]
  %.01324 = phi i32 [ %11, %.lr.ph ], [ 0, %16 ]
  %18 = getelementptr inbounds ptr, ptr %14, i64 %indvars.iv
  %19 = load ptr, ptr %18, align 8, !tbaa !67
  %20 = getelementptr inbounds nuw i8, ptr %19, i64 72
  %21 = load i32, ptr %20, align 8, !tbaa !68
  %.not18 = icmp slt i32 %.01324, %21
  br i1 %.not18, label %.thread19, label %16

.thread19:                                        ; preds = %17
  %22 = getelementptr inbounds nuw i8, ptr %19, i64 64
  %23 = load ptr, ptr %22, align 8, !tbaa !69
  %24 = sext i32 %.01324 to i64
  %25 = getelementptr inbounds ptr, ptr %23, i64 %24
  %26 = load ptr, ptr %25, align 8, !tbaa !70
  br label %.loopexit

.loopexit:                                        ; preds = %16, %.thread, %.thread19
  %.2 = phi ptr [ %26, %.thread19 ], [ null, %.thread ], [ null, %16 ]
  ret ptr %.2
}